target datalayout = "e-m:e-p270:32:32-p271:32:32-p272:64:64-i64:64-i128:128-f80:128-n8:16:32:64-S128"
target triple = "x86_64-pc-linux-gnu"

%struct.ZSTD_customMem = type { ptr, ptr, ptr }
%struct.ZSTD_frameParameters = type { i32, i32, i32 }
%struct.ZSTD_compressionParameters = type { i32, i32, i32, i32, i32, i32, i32 }
%struct.ZSTD_CCtx_params_s = type { i32, %struct.ZSTD_compressionParameters, %struct.ZSTD_frameParameters, i32, i32, i64, i32, i32, i32, i32, i64, i32, i32, %struct.ldmParams_t, i32, i32, i32, i32, i32, i32, i32, i64, i32, i32, %struct.ZSTD_customMem, i32, i32, ptr, ptr, i32 }
%struct.ldmParams_t = type { i32, i32, i32, i32, i32, i32 }
%struct.ZSTD_compressedBlockState_t = type { %struct.ZSTD_entropyCTables_t, [3 x i32] }
%struct.ZSTD_entropyCTables_t = type { %struct.ZSTD_hufCTables_t, %struct.ZSTD_fseCTables_t }
%struct.ZSTD_hufCTables_t = type { [257 x i64], i32 }
%struct.ZSTD_fseCTables_t = type { [193 x i32], [363 x i32], [329 x i32], i32, i32, i32 }

@repStartValue = internal constant [3 x i32] [i32 1, i32 4, i32 8], align 4

; Function Attrs: nounwind uwtable
define internal i32 @ERR_isError(i64 noundef %0) #0 {
  %2 = alloca i64, align 8
  store i64 %0, ptr %2, align 8, !tbaa !3
  %3 = load i64, ptr %2, align 8, !tbaa !3
  %4 = icmp ugt i64 %3, -120
  %5 = zext i1 %4 to i32
  ret i32 %5
}

; Function Attrs: inlinehint nounwind uwtable
define internal i32 @MEM_swap32(i32 noundef %0) #2 {
  %2 = alloca i32, align 4
  store i32 %0, ptr %2, align 4, !tbaa !53
  %3 = load i32, ptr %2, align 4, !tbaa !53
  %4 = call i32 @llvm.bswap.i32(i32 %3)
  ret i32 %4
}

; Function Attrs: inlinehint nounwind uwtable
define internal i32 @MEM_read32(ptr noundef %0) #2 {
  %2 = alloca ptr, align 8
  store ptr %0, ptr %2, align 8, !tbaa !15
  %3 = load ptr, ptr %2, align 8, !tbaa !15
  %4 = load i32, ptr %3, align 1, !tbaa !53
  ret i32 %4
}

; Function Attrs: inlinehint nounwind uwtable
define internal i32 @MEM_isLittleEndian() #2 {
  ret i32 1
}

; Function Attrs: nounwind uwtable
define internal i64 @ZSTD_loadZstdDictionary(ptr noundef %0, ptr noundef %1, ptr noundef %2, ptr noundef %3, ptr noundef %4, i64 noundef %5, i32 noundef %6, i32 noundef %7, ptr noundef %8) #0 {
  %10 = alloca i64, align 8
  %11 = alloca ptr, align 8
  %12 = alloca ptr, align 8
  %13 = alloca ptr, align 8
  %14 = alloca ptr, align 8
  %15 = alloca ptr, align 8
  %16 = alloca i64, align 8
  %17 = alloca i32, align 4
  %18 = alloca i32, align 4
  %19 = alloca ptr, align 8
  %20 = alloca ptr, align 8
  %21 = alloca ptr, align 8
  %22 = alloca i64, align 8
  %23 = alloca i64, align 8
  %24 = alloca i64, align 8
  %25 = alloca i32, align 4
  %26 = alloca i64, align 8
  %27 = alloca i64, align 8
  store ptr %0, ptr %11, align 8, !tbaa !15
  store ptr %1, ptr %12, align 8, !tbaa !196
  store ptr %2, ptr %13, align 8, !tbaa !15
  store ptr %3, ptr %14, align 8, !tbaa !79
  store ptr %4, ptr %15, align 8, !tbaa !15
  store i64 %5, ptr %16, align 8, !tbaa !3
  store i32 %6, ptr %17, align 4, !tbaa !53
  store i32 %7, ptr %18, align 4, !tbaa !53
  store ptr %8, ptr %19, align 8, !tbaa !15
  call void @llvm.lifetime.start.p0(i64 8, ptr %20) #15
  %28 = load ptr, ptr %15, align 8, !tbaa !15
  store ptr %28, ptr %20, align 8, !tbaa !198
  call void @llvm.lifetime.start.p0(i64 8, ptr %21) #15
  %29 = load ptr, ptr %20, align 8, !tbaa !198
  %30 = load i64, ptr %16, align 8, !tbaa !3
  %31 = getelementptr inbounds nuw i8, ptr %29, i64 %30
  store ptr %31, ptr %21, align 8, !tbaa !198
  call void @llvm.lifetime.start.p0(i64 8, ptr %22) #15
  call void @llvm.lifetime.start.p0(i64 8, ptr %23) #15
  %32 = load ptr, ptr %14, align 8, !tbaa !79
  %33 = getelementptr inbounds nuw %struct.ZSTD_CCtx_params_s, ptr %32, i32 0, i32 2
  %34 = getelementptr inbounds nuw %struct.ZSTD_frameParameters, ptr %33, i32 0, i32 2
  %35 = load i32, ptr %34, align 8, !tbaa !113
  %36 = icmp ne i32 %35, 0
  br i1 %36, label %37, label %38

37:                                               ; preds = %9
  br label %42

38:                                               ; preds = %9
  %39 = load ptr, ptr %20, align 8, !tbaa !198
  %40 = getelementptr inbounds i8, ptr %39, i64 4
  %41 = call i32 @MEM_readLE32(ptr noundef %40)
  br label %42

42:                                               ; preds = %38, %37
  %43 = phi i32 [ 0, %37 ], [ %41, %38 ]
  %44 = zext i32 %43 to i64
  store i64 %44, ptr %22, align 8, !tbaa !3
  %45 = load ptr, ptr %11, align 8, !tbaa !15
  %46 = load ptr, ptr %19, align 8, !tbaa !15
  %47 = load ptr, ptr %15, align 8, !tbaa !15
  %48 = load i64, ptr %16, align 8, !tbaa !3
  %49 = call i64 @ZSTD_loadCEntropy(ptr noundef %45, ptr noundef %46, ptr noundef %47, i64 noundef %48)
  store i64 %49, ptr %23, align 8, !tbaa !3
  br label %50

50:                                               ; preds = %42
  call void @llvm.lifetime.start.p0(i64 8, ptr %24) #15
  %51 = load i64, ptr %23, align 8, !tbaa !3
  store i64 %51, ptr %24, align 8, !tbaa !3
  %52 = load i64, ptr %24, align 8, !tbaa !3
  %53 = call i32 @ERR_isError(i64 noundef %52)
  %54 = icmp ne i32 %53, 0
  br i1 %54, label %55, label %69

55:                                               ; preds = %50
  br label %56

56:                                               ; preds = %55
  br label %57

57:                                               ; preds = %56
  br label %58

58:                                               ; preds = %57
  br label %59

59:                                               ; preds = %58
  br label %60

60:                                               ; preds = %59
  br label %61

61:                                               ; preds = %60
  br label %62

62:                                               ; preds = %61
  br label %63

63:                                               ; preds = %62
  br label %64

64:                                               ; preds = %63
  br label %65

65:                                               ; preds = %64
  br label %66

66:                                               ; preds = %65
  br label %67

67:                                               ; preds = %66
  %68 = load i64, ptr %24, align 8, !tbaa !3
  store i64 %68, ptr %10, align 8
  store i32 1, ptr %25, align 4
  br label %70

69:                                               ; preds = %50
  store i32 0, ptr %25, align 4
  br label %70

70:                                               ; preds = %69, %67
  call void @llvm.lifetime.end.p0(i64 8, ptr %24) #15
  %71 = load i32, ptr %25, align 4
  switch i32 %71, label %119 [
    i32 0, label %72
  ]

72:                                               ; preds = %70
  br label %73

73:                                               ; preds = %72
  br label %74

74:                                               ; preds = %73
  %75 = load i64, ptr %23, align 8, !tbaa !3
  %76 = load ptr, ptr %20, align 8, !tbaa !198
  %77 = getelementptr inbounds nuw i8, ptr %76, i64 %75
  store ptr %77, ptr %20, align 8, !tbaa !198
  call void @llvm.lifetime.start.p0(i64 8, ptr %26) #15
  %78 = load ptr, ptr %21, align 8, !tbaa !198
  %79 = load ptr, ptr %20, align 8, !tbaa !198
  %80 = ptrtoint ptr %78 to i64
  %81 = ptrtoint ptr %79 to i64
  %82 = sub i64 %80, %81
  store i64 %82, ptr %26, align 8, !tbaa !3
  br label %83

83:                                               ; preds = %74
  call void @llvm.lifetime.start.p0(i64 8, ptr %27) #15
  %84 = load ptr, ptr %12, align 8, !tbaa !196
  %85 = load ptr, ptr %13, align 8, !tbaa !15
  %86 = load ptr, ptr %14, align 8, !tbaa !79
  %87 = load ptr, ptr %20, align 8, !tbaa !198
  %88 = load i64, ptr %26, align 8, !tbaa !3
  %89 = load i32, ptr %17, align 4, !tbaa !53
  %90 = load i32, ptr %18, align 4, !tbaa !53
  %91 = call i64 @ZSTD_loadDictionaryContent(ptr noundef %84, ptr noundef null, ptr noundef %85, ptr noundef %86, ptr noundef %87, i64 noundef %88, i32 noundef %89, i32 noundef %90)
  store i64 %91, ptr %27, align 8, !tbaa !3
  %92 = load i64, ptr %27, align 8, !tbaa !3
  %93 = call i32 @ERR_isError(i64 noundef %92)
  %94 = icmp ne i32 %93, 0
  br i1 %94, label %95, label %109

95:                                               ; preds = %83
  br label %96

96:                                               ; preds = %95
  br label %97

97:                                               ; preds = %96
  br label %98

98:                                               ; preds = %97
  br label %99

99:                                               ; preds = %98
  br label %100

100:                                              ; preds = %99
  br label %101

101:                                              ; preds = %100
  br label %102

102:                                              ; preds = %101
  br label %103

103:                                              ; preds = %102
  br label %104

104:                                              ; preds = %103
  br label %105

105:                                              ; preds = %104
  br label %106

106:                                              ; preds = %105
  br label %107

107:                                              ; preds = %106
  %108 = load i64, ptr %27, align 8, !tbaa !3
  store i64 %108, ptr %10, align 8
  store i32 1, ptr %25, align 4
  br label %110

109:                                              ; preds = %83
  store i32 0, ptr %25, align 4
  br label %110

110:                                              ; preds = %109, %107
  call void @llvm.lifetime.end.p0(i64 8, ptr %27) #15
  %111 = load i32, ptr %25, align 4
  switch i32 %111, label %115 [
    i32 0, label %112
  ]

112:                                              ; preds = %110
  br label %113

113:                                              ; preds = %112
  br label %114

114:                                              ; preds = %113
  store i32 0, ptr %25, align 4
  br label %115

115:                                              ; preds = %114, %110
  call void @llvm.lifetime.end.p0(i64 8, ptr %26) #15
  %116 = load i32, ptr %25, align 4
  switch i32 %116, label %119 [
    i32 0, label %117
  ]

117:                                              ; preds = %115
  %118 = load i64, ptr %22, align 8, !tbaa !3
  store i64 %118, ptr %10, align 8
  store i32 1, ptr %25, align 4
  br label %119

119:                                              ; preds = %117, %115, %70
  call void @llvm.lifetime.end.p0(i64 8, ptr %23) #15
  call void @llvm.lifetime.end.p0(i64 8, ptr %22) #15
  call void @llvm.lifetime.end.p0(i64 8, ptr %21) #15
  call void @llvm.lifetime.end.p0(i64 8, ptr %20) #15
  %120 = load i64, ptr %10, align 8
  ret i64 %120
}

; Function Attrs: inlinehint nounwind uwtable
define internal i32 @MEM_readLE32(ptr noundef %0) #2 {
  %2 = alloca i32, align 4
  %3 = alloca ptr, align 8
  store ptr %0, ptr %3, align 8, !tbaa !15
  %4 = call i32 @MEM_isLittleEndian()
  %5 = icmp ne i32 %4, 0
  br i1 %5, label %6, label %9

6:                                                ; preds = %1
  %7 = load ptr, ptr %3, align 8, !tbaa !15
  %8 = call i32 @MEM_read32(ptr noundef %7)
  store i32 %8, ptr %2, align 4
  br label %13

9:                                                ; preds = %1
  %10 = load ptr, ptr %3, align 8, !tbaa !15
  %11 = call i32 @MEM_read32(ptr noundef %10)
  %12 = call i32 @MEM_swap32(i32 noundef %11)
  store i32 %12, ptr %2, align 4
  br label %13

13:                                               ; preds = %9, %6
  %14 = load i32, ptr %2, align 4
  ret i32 %14
}

; Function Attrs: nounwind uwtable
define void @ZSTD_reset_compressedBlockState(ptr noundef %0) #0 {
  %2 = alloca ptr, align 8
  %3 = alloca i32, align 4
  store ptr %0, ptr %2, align 8, !tbaa !15
  call void @llvm.lifetime.start.p0(i64 4, ptr %3) #15
  store i32 0, ptr %3, align 4, !tbaa !53
  br label %4

4:                                                ; preds = %17, %1
  %5 = load i32, ptr %3, align 4, !tbaa !53
  %6 = icmp slt i32 %5, 3
  br i1 %6, label %7, label %20

7:                                                ; preds = %4
  %8 = load i32, ptr %3, align 4, !tbaa !53
  %9 = sext i32 %8 to i64
  %10 = getelementptr inbounds [3 x i32], ptr @repStartValue, i64 0, i64 %9
  %11 = load i32, ptr %10, align 4, !tbaa !53
  %12 = load ptr, ptr %2, align 8, !tbaa !15
  %13 = getelementptr inbounds nuw %struct.ZSTD_compressedBlockState_t, ptr %12, i32 0, i32 1
  %14 = load i32, ptr %3, align 4, !tbaa !53
  %15 = sext i32 %14 to i64
  %16 = getelementptr inbounds [3 x i32], ptr %13, i64 0, i64 %15
  store i32 %11, ptr %16, align 4, !tbaa !53
  br label %17

17:                                               ; preds = %7
  %18 = load i32, ptr %3, align 4, !tbaa !53
  %19 = add nsw i32 %18, 1
  store i32 %19, ptr %3, align 4, !tbaa !53
  br label %4, !llvm.loop !174

20:                                               ; preds = %4
  %21 = load ptr, ptr %2, align 8, !tbaa !15
  %22 = getelementptr inbounds nuw %struct.ZSTD_compressedBlockState_t, ptr %21, i32 0, i32 0
  %23 = getelementptr inbounds nuw %struct.ZSTD_entropyCTables_t, ptr %22, i32 0, i32 0
  %24 = getelementptr inbounds nuw %struct.ZSTD_hufCTables_t, ptr %23, i32 0, i32 1
  store i32 0, ptr %24, align 8, !tbaa !175
  %25 = load ptr, ptr %2, align 8, !tbaa !15
  %26 = getelementptr inbounds nuw %struct.ZSTD_compressedBlockState_t, ptr %25, i32 0, i32 0
  %27 = getelementptr inbounds nuw %struct.ZSTD_entropyCTables_t, ptr %26, i32 0, i32 1
  %28 = getelementptr inbounds nuw %struct.ZSTD_fseCTables_t, ptr %27, i32 0, i32 3
  store i32 0, ptr %28, align 4, !tbaa !180
  %29 = load ptr, ptr %2, align 8, !tbaa !15
  %30 = getelementptr inbounds nuw %struct.ZSTD_compressedBlockState_t, ptr %29, i32 0, i32 0
  %31 = getelementptr inbounds nuw %struct.ZSTD_entropyCTables_t, ptr %30, i32 0, i32 1
  %32 = getelementptr inbounds nuw %struct.ZSTD_fseCTables_t, ptr %31, i32 0, i32 4
  store i32 0, ptr %32, align 8, !tbaa !181
  %33 = load ptr, ptr %2, align 8, !tbaa !15
  %34 = getelementptr inbounds nuw %struct.ZSTD_compressedBlockState_t, ptr %33, i32 0, i32 0
  %35 = getelementptr inbounds nuw %struct.ZSTD_entropyCTables_t, ptr %34, i32 0, i32 1
  %36 = getelementptr inbounds nuw %struct.ZSTD_fseCTables_t, ptr %35, i32 0, i32 5
  store i32 0, ptr %36, align 4, !tbaa !182
  call void @llvm.lifetime.end.p0(i64 4, ptr %3) #15
  ret void
}

; Function Attrs: nounwind uwtable
define internal i64 @ZSTD_compress_insertDictionary(ptr noundef %0, ptr noundef %1, ptr noundef %2, ptr noundef %3, ptr noundef %4, ptr noundef %5, i64 noundef %6, i32 noundef %7, i32 noundef %8, i32 noundef %9, ptr noundef %10) #0 {
  %12 = alloca i64, align 8
  %13 = alloca ptr, align 8
  %14 = alloca ptr, align 8
  %15 = alloca ptr, align 8
  %16 = alloca ptr, align 8
  %17 = alloca ptr, align 8
  %18 = alloca ptr, align 8
  %19 = alloca i64, align 8
  %20 = alloca i32, align 4
  %21 = alloca i32, align 4
  %22 = alloca i32, align 4
  %23 = alloca ptr, align 8
  store ptr %0, ptr %13, align 8, !tbaa !15
  store ptr %1, ptr %14, align 8, !tbaa !196
  store ptr %2, ptr %15, align 8, !tbaa !15
  store ptr %3, ptr %16, align 8, !tbaa !15
  store ptr %4, ptr %17, align 8, !tbaa !79
  store ptr %5, ptr %18, align 8, !tbaa !15
  store i64 %6, ptr %19, align 8, !tbaa !3
  store i32 %7, ptr %20, align 4, !tbaa !53
  store i32 %8, ptr %21, align 4, !tbaa !53
  store i32 %9, ptr %22, align 4, !tbaa !53
  store ptr %10, ptr %23, align 8, !tbaa !15
  br label %24

24:                                               ; preds = %11
  br label %25

25:                                               ; preds = %24
  %26 = load ptr, ptr %18, align 8, !tbaa !15
  %27 = icmp eq ptr %26, null
  br i1 %27, label %31, label %28

28:                                               ; preds = %25
  %29 = load i64, ptr %19, align 8, !tbaa !3
  %30 = icmp ult i64 %29, 8
  br i1 %30, label %31, label %46

31:                                               ; preds = %28, %25
  br label %32

32:                                               ; preds = %31
  %33 = load i32, ptr %20, align 4, !tbaa !53
  %34 = icmp eq i32 %33, 2
  br i1 %34, label %35, label %44

35:                                               ; preds = %32
  br label %36

36:                                               ; preds = %35
  br label %37

37:                                               ; preds = %36
  br label %38

38:                                               ; preds = %37
  br label %39

39:                                               ; preds = %38
  br label %40

40:                                               ; preds = %39
  br label %41

41:                                               ; preds = %40
  br label %42

42:                                               ; preds = %41
  br label %43

43:                                               ; preds = %42
  store i64 -32, ptr %12, align 8
  br label %105

44:                                               ; preds = %32
  br label %45

45:                                               ; preds = %44
  store i64 0, ptr %12, align 8
  br label %105

46:                                               ; preds = %28
  %47 = load ptr, ptr %13, align 8, !tbaa !15
  call void @ZSTD_reset_compressedBlockState(ptr noundef %47)
  %48 = load i32, ptr %20, align 4, !tbaa !53
  %49 = icmp eq i32 %48, 1
  br i1 %49, label %50, label %60

50:                                               ; preds = %46
  %51 = load ptr, ptr %14, align 8, !tbaa !196
  %52 = load ptr, ptr %15, align 8, !tbaa !15
  %53 = load ptr, ptr %16, align 8, !tbaa !15
  %54 = load ptr, ptr %17, align 8, !tbaa !79
  %55 = load ptr, ptr %18, align 8, !tbaa !15
  %56 = load i64, ptr %19, align 8, !tbaa !3
  %57 = load i32, ptr %21, align 4, !tbaa !53
  %58 = load i32, ptr %22, align 4, !tbaa !53
  %59 = call i64 @ZSTD_loadDictionaryContent(ptr noundef %51, ptr noundef %52, ptr noundef %53, ptr noundef %54, ptr noundef %55, i64 noundef %56, i32 noundef %57, i32 noundef %58)
  store i64 %59, ptr %12, align 8
  br label %105

60:                                               ; preds = %46
  %61 = load ptr, ptr %18, align 8, !tbaa !15
  %62 = call i32 @MEM_readLE32(ptr noundef %61)
  %63 = icmp ne i32 %62, -332356553
  br i1 %63, label %64, label %94

64:                                               ; preds = %60
  %65 = load i32, ptr %20, align 4, !tbaa !53
  %66 = icmp eq i32 %65, 0
  br i1 %66, label %67, label %79

67:                                               ; preds = %64
  br label %68

68:                                               ; preds = %67
  br label %69

69:                                               ; preds = %68
  %70 = load ptr, ptr %14, align 8, !tbaa !196
  %71 = load ptr, ptr %15, align 8, !tbaa !15
  %72 = load ptr, ptr %16, align 8, !tbaa !15
  %73 = load ptr, ptr %17, align 8, !tbaa !79
  %74 = load ptr, ptr %18, align 8, !tbaa !15
  %75 = load i64, ptr %19, align 8, !tbaa !3
  %76 = load i32, ptr %21, align 4, !tbaa !53
  %77 = load i32, ptr %22, align 4, !tbaa !53
  %78 = call i64 @ZSTD_loadDictionaryContent(ptr noundef %70, ptr noundef %71, ptr noundef %72, ptr noundef %73, ptr noundef %74, i64 noundef %75, i32 noundef %76, i32 noundef %77)
  store i64 %78, ptr %12, align 8
  br label %105

79:                                               ; preds = %64
  br label %80

80:                                               ; preds = %79
  %81 = load i32, ptr %20, align 4, !tbaa !53
  %82 = icmp eq i32 %81, 2
  br i1 %82, label %83, label %92

83:                                               ; preds = %80
  br label %84

84:                                               ; preds = %83
  br label %85

85:                                               ; preds = %84
  br label %86

86:                                               ; preds = %85
  br label %87

87:                                               ; preds = %86
  br label %88

88:                                               ; preds = %87
  br label %89

89:                                               ; preds = %88
  br label %90

90:                                               ; preds = %89
  br label %91

91:                                               ; preds = %90
  store i64 -32, ptr %12, align 8
  br label %105

92:                                               ; preds = %80
  br label %93

93:                                               ; preds = %92
  br label %94

94:                                               ; preds = %93, %60
  %95 = load ptr, ptr %13, align 8, !tbaa !15
  %96 = load ptr, ptr %14, align 8, !tbaa !196
  %97 = load ptr, ptr %16, align 8, !tbaa !15
  %98 = load ptr, ptr %17, align 8, !tbaa !79
  %99 = load ptr, ptr %18, align 8, !tbaa !15
  %100 = load i64, ptr %19, align 8, !tbaa !3
  %101 = load i32, ptr %21, align 4, !tbaa !53
  %102 = load i32, ptr %22, align 4, !tbaa !53
  %103 = load ptr, ptr %23, align 8, !tbaa !15
  %104 = call i64 @ZSTD_loadZstdDictionary(ptr noundef %95, ptr noundef %96, ptr noundef %97, ptr noundef %98, ptr noundef %99, i64 noundef %100, i32 noundef %101, i32 noundef %102, ptr noundef %103)
  store i64 %104, ptr %12, align 8
  br label %105

105:                                              ; preds = %94, %91, %69, %50, %45, %43
  %106 = load i64, ptr %12, align 8
  ret i64 %106
}