; Function Attrs: nounwind uwtable
define internal fastcc range(i64 -119, 4294967296) i64 @ZSTD_compress_insertDictionary(ptr noundef %0, ptr noundef %1, ptr noundef %2, ptr noundef captures(none) %3, ptr noundef %4, ptr noundef %5, i64 noundef %6, i32 noundef %7, i32 noundef %8, i32 noundef range(i32 0, 2) %9, ptr noundef %10) unnamed_addr #2 {
  %12 = icmp eq ptr %5, null
  %13 = icmp ult i64 %6, 8
  %or.cond = or i1 %12, %13
  br i1 %or.cond, label %14, label %16

14:                                               ; preds = %11
  %15 = icmp eq i32 %7, 2
  %. = select i1 %15, i64 -32, i64 0
  br label %ZSTD_loadZstdDictionary.exit

16:                                               ; preds = %11
  %17 = getelementptr inbounds nuw i8, ptr %0, i64 5616
  tail call void @llvm.memcpy.p0.p0.i64(ptr noundef nonnull align 4 dereferenceable(12) %17, ptr noundef nonnull align 4 dereferenceable(12) @repStartValue, i64 12, i1 false), !tbaa !48
  %18 = getelementptr inbounds nuw i8, ptr %0, i64 2056
  store i32 0, ptr %18, align 8, !tbaa !162
  %19 = getelementptr inbounds nuw i8, ptr %0, i64 5604
  store i32 0, ptr %19, align 4, !tbaa !163
  %20 = getelementptr inbounds nuw i8, ptr %0, i64 5608
  store i32 0, ptr %20, align 8, !tbaa !164
  %21 = getelementptr inbounds nuw i8, ptr %0, i64 5612
  store i32 0, ptr %21, align 4, !tbaa !165
  %22 = icmp eq i32 %7, 1
  br i1 %22, label %23, label %24

23:                                               ; preds = %16
  tail call fastcc void @ZSTD_loadDictionaryContent(ptr noundef %1, ptr noundef %2, ptr noundef %3, ptr noundef %4, ptr noundef %5, i64 noundef %6, i32 noundef %8, i32 noundef %9)
  br label %ZSTD_loadZstdDictionary.exit

24:                                               ; preds = %16
  %.val = load i32, ptr %5, align 1, !tbaa !48
  %.not = icmp eq i32 %.val, -332356553
  br i1 %.not, label %27, label %25

25:                                               ; preds = %24
  switch i32 %7, label %27 [
    i32 0, label %26
    i32 2, label %ZSTD_loadZstdDictionary.exit
  ]

26:                                               ; preds = %25
  tail call fastcc void @ZSTD_loadDictionaryContent(ptr noundef %1, ptr noundef %2, ptr noundef %3, ptr noundef %4, ptr noundef %5, i64 noundef %6, i32 noundef %8, i32 noundef %9)
  br label %ZSTD_loadZstdDictionary.exit

27:                                               ; preds = %25, %24
  %28 = getelementptr inbounds nuw i8, ptr %4, i64 40
  %29 = load i32, ptr %28, align 8, !tbaa !92
  %.not.i = icmp eq i32 %29, 0
  br i1 %.not.i, label %30, label %33

30:                                               ; preds = %27
  %31 = getelementptr inbounds nuw i8, ptr %5, i64 4
  %.val.i = load i32, ptr %31, align 1, !tbaa !48
  %32 = zext i32 %.val.i to i64
  br label %33

33:                                               ; preds = %30, %27
  %34 = phi i64 [ %32, %30 ], [ 0, %27 ]
  %35 = tail call i64 @ZSTD_loadCEntropy(ptr noundef nonnull %0, ptr noundef %10, ptr noundef nonnull %5, i64 noundef range(i64 8, 0) %6)
  %36 = icmp ult i64 %35, -119
  br i1 %36, label %37, label %ZSTD_loadZstdDictionary.exit

37:                                               ; preds = %33
  %38 = getelementptr inbounds nuw i8, ptr %5, i64 %35
  %gepdiff.i = sub nsw i64 %6, %35
  tail call fastcc void @ZSTD_loadDictionaryContent(ptr noundef %1, ptr noundef null, ptr noundef %3, ptr noundef nonnull %4, ptr noundef %38, i64 noundef %gepdiff.i, i32 noundef %8, i32 noundef range(i32 0, 2) %9)
  br label %ZSTD_loadZstdDictionary.exit

ZSTD_loadZstdDictionary.exit:                     ; preds = %37, %33, %25, %14, %26, %23
  %.0 = phi i64 [ 0, %23 ], [ 0, %26 ], [ %., %14 ], [ -32, %25 ], [ %35, %33 ], [ %34, %37 ]
  ret i64 %.0
}